target datalayout = "e-m:e-p270:32:32-p271:32:32-p272:64:64-i64:64-i128:128-f80:128-n8:16:32:64-S128"
target triple = "x86_64-pc-linux-gnu"

%struct.ItemPointerData = type { %struct.BlockIdData, i16 }
%struct.BlockIdData = type { i16, i16 }
%struct.spgConfigOut = type { i32, i32, i32, i8, i8 }
%struct.SpGistTypeDesc = type { i32, i16, i8, i8, i8 }
%struct.SpGistState = type { ptr, %struct.spgConfigOut, %struct.SpGistTypeDesc, %struct.SpGistTypeDesc, %struct.SpGistTypeDesc, %struct.SpGistTypeDesc, ptr, ptr, i32, i8 }
%struct.SpGistDeadTupleData = type { i32, i16, %struct.ItemPointerData, i32 }

; Function Attrs: inlinehint nounwind uwtable
define internal void @BlockIdSet(ptr noundef %0, i32 noundef %1) #2 {
  %3 = alloca ptr, align 8
  %4 = alloca i32, align 4
  store ptr %0, ptr %3, align 8
  store i32 %1, ptr %4, align 4
  %5 = load i32, ptr %4, align 4
  %6 = lshr i32 %5, 16
  %7 = trunc i32 %6 to i16
  %8 = load ptr, ptr %3, align 8
  %9 = getelementptr inbounds nuw %struct.BlockIdData, ptr %8, i32 0, i32 0
  store i16 %7, ptr %9, align 2
  %10 = load i32, ptr %4, align 4
  %11 = and i32 %10, 65535
  %12 = trunc i32 %11 to i16
  %13 = load ptr, ptr %3, align 8
  %14 = getelementptr inbounds nuw %struct.BlockIdData, ptr %13, i32 0, i32 1
  store i16 %12, ptr %14, align 2
  ret void
}

; Function Attrs: inlinehint nounwind uwtable
define internal void @ItemPointerSetInvalid(ptr noundef %0) #2 {
  %2 = alloca ptr, align 8
  store ptr %0, ptr %2, align 8
  %3 = load ptr, ptr %2, align 8
  %4 = getelementptr inbounds nuw %struct.ItemPointerData, ptr %3, i32 0, i32 0
  call void @BlockIdSet(ptr noundef %4, i32 noundef -1)
  %5 = load ptr, ptr %2, align 8
  %6 = getelementptr inbounds nuw %struct.ItemPointerData, ptr %5, i32 0, i32 1
  store i16 0, ptr %6, align 2
  ret void
}

; Function Attrs: inlinehint nounwind uwtable
define internal void @ItemPointerSet(ptr noundef %0, i32 noundef %1, i16 noundef zeroext %2) #2 {
  %4 = alloca ptr, align 8
  %5 = alloca i32, align 4
  %6 = alloca i16, align 2
  store ptr %0, ptr %4, align 8
  store i32 %1, ptr %5, align 4
  store i16 %2, ptr %6, align 2
  %7 = load ptr, ptr %4, align 8
  %8 = getelementptr inbounds nuw %struct.ItemPointerData, ptr %7, i32 0, i32 0
  %9 = load i32, ptr %5, align 4
  call void @BlockIdSet(ptr noundef %8, i32 noundef %9)
  %10 = load i16, ptr %6, align 2
  %11 = load ptr, ptr %4, align 8
  %12 = getelementptr inbounds nuw %struct.ItemPointerData, ptr %11, i32 0, i32 1
  store i16 %10, ptr %12, align 2
  ret void
}

; Function Attrs: nounwind uwtable
define dso_local ptr @spgFormDeadTuple(ptr noundef %0, i32 noundef %1, i32 noundef %2, i16 noundef zeroext %3) #0 {
  %5 = alloca ptr, align 8
  %6 = alloca i32, align 4
  %7 = alloca i32, align 4
  %8 = alloca i16, align 2
  %9 = alloca ptr, align 8
  store ptr %0, ptr %5, align 8
  store i32 %1, ptr %6, align 4
  store i32 %2, ptr %7, align 4
  store i16 %3, ptr %8, align 2
  call void @llvm.lifetime.start.p0(i64 8, ptr %9) #7
  %10 = load ptr, ptr %5, align 8
  %11 = getelementptr inbounds nuw %struct.SpGistState, ptr %10, i32 0, i32 7
  %12 = load ptr, ptr %11, align 8
  store ptr %12, ptr %9, align 8
  %13 = load i32, ptr %6, align 4
  %14 = load ptr, ptr %9, align 8
  %15 = load i32, ptr %14, align 4
  %16 = and i32 %13, 3
  %17 = and i32 %15, -4
  %18 = or i32 %17, %16
  store i32 %18, ptr %14, align 4
  %19 = load ptr, ptr %9, align 8
  %20 = load i32, ptr %19, align 4
  %21 = and i32 %20, 3
  %22 = or i32 %21, 64
  store i32 %22, ptr %19, align 4
  %23 = load ptr, ptr %9, align 8
  %24 = getelementptr inbounds nuw %struct.SpGistDeadTupleData, ptr %23, i32 0, i32 1
  %25 = load i16, ptr %24, align 4
  %26 = zext i16 %25 to i32
  %27 = and i32 %26, 49152
  %28 = or i32 %27, 0
  %29 = trunc i32 %28 to i16
  %30 = load ptr, ptr %9, align 8
  %31 = getelementptr inbounds nuw %struct.SpGistDeadTupleData, ptr %30, i32 0, i32 1
  store i16 %29, ptr %31, align 4
  %32 = load i32, ptr %6, align 4
  %33 = icmp eq i32 %32, 1
  br i1 %33, label %34, label %44

34:                                               ; preds = %4
  %35 = load ptr, ptr %9, align 8
  %36 = getelementptr inbounds nuw %struct.SpGistDeadTupleData, ptr %35, i32 0, i32 2
  %37 = load i32, ptr %7, align 4
  %38 = load i16, ptr %8, align 2
  call void @ItemPointerSet(ptr noundef %36, i32 noundef %37, i16 noundef zeroext %38)
  %39 = load ptr, ptr %5, align 8
  %40 = getelementptr inbounds nuw %struct.SpGistState, ptr %39, i32 0, i32 8
  %41 = load i32, ptr %40, align 8
  %42 = load ptr, ptr %9, align 8
  %43 = getelementptr inbounds nuw %struct.SpGistDeadTupleData, ptr %42, i32 0, i32 3
  store i32 %41, ptr %43, align 4
  br label %49

44:                                               ; preds = %4
  %45 = load ptr, ptr %9, align 8
  %46 = getelementptr inbounds nuw %struct.SpGistDeadTupleData, ptr %45, i32 0, i32 2
  call void @ItemPointerSetInvalid(ptr noundef %46)
  %47 = load ptr, ptr %9, align 8
  %48 = getelementptr inbounds nuw %struct.SpGistDeadTupleData, ptr %47, i32 0, i32 3
  store i32 0, ptr %48, align 4
  br label %49

49:                                               ; preds = %44, %34
  %50 = load ptr, ptr %9, align 8
  call void @llvm.lifetime.end.p0(i64 8, ptr %9) #7
  ret ptr %50
}