; Function Attrs: mustprogress nofree norecurse nosync nounwind willreturn memory(readwrite, inaccessiblemem: none) uwtable
define dso_local noundef ptr @spgFormDeadTuple(ptr noundef readonly captures(none) %0, i32 noundef %1, i32 noundef %2, i16 noundef zeroext %3) local_unnamed_addr #7 {
  %5 = getelementptr inbounds nuw i8, ptr %0, i64 80
  %6 = load ptr, ptr %5, align 8
  %7 = and i32 %1, 3
  %8 = or disjoint i32 %7, 64
  store i32 %8, ptr %6, align 4
  %9 = getelementptr inbounds nuw i8, ptr %6, i64 4
  %10 = load i16, ptr %9, align 4
  %11 = and i16 %10, -16384
  store i16 %11, ptr %9, align 4
  %12 = icmp eq i32 %1, 1
  %13 = getelementptr inbounds nuw i8, ptr %6, i64 6
  br i1 %12, label %14, label %22

14:                                               ; preds = %4
  %15 = lshr i32 %2, 16
  %16 = trunc nuw i32 %15 to i16
  store i16 %16, ptr %13, align 2
  %17 = trunc i32 %2 to i16
  %18 = getelementptr inbounds nuw i8, ptr %6, i64 8
  store i16 %17, ptr %18, align 2
  %19 = getelementptr inbounds nuw i8, ptr %6, i64 10
  store i16 %3, ptr %19, align 2
  %20 = getelementptr inbounds nuw i8, ptr %0, i64 88
  %21 = load i32, ptr %20, align 8
  br label %25

22:                                               ; preds = %4
  store i16 -1, ptr %13, align 2
  %23 = getelementptr inbounds nuw i8, ptr %6, i64 8
  store i16 -1, ptr %23, align 2
  %24 = getelementptr inbounds nuw i8, ptr %6, i64 10
  store i16 0, ptr %24, align 2
  br label %25

25:                                               ; preds = %22, %14
  %.sink = phi i32 [ %21, %14 ], [ 0, %22 ]
  %26 = getelementptr inbounds nuw i8, ptr %6, i64 12
  store i32 %.sink, ptr %26, align 4
  ret ptr %6
}